; Function Attrs: mustprogress uwtable
define noundef i32 @_ZNK6casadi4Lsqr5solveEPvPKdPdxb(ptr noundef nonnull align 8 dereferenceable(184) %0, ptr nocapture noundef readonly %1, ptr noundef %2, ptr noundef %3, i64 noundef %4, i1 noundef zeroext %5) unnamed_addr #4 align 2 {
  %7 = zext i1 %5 to i64
  %8 = getelementptr inbounds i8, ptr %0, i64 176
  %9 = tail call noundef ptr @_ZNK6casadi8SparsitycvPKxEv(ptr noundef nonnull align 8 dereferenceable(8) %8)
  %10 = getelementptr inbounds i8, ptr %1, i64 88
  %11 = load ptr, ptr %10, align 8
  %12 = getelementptr inbounds i8, ptr %1, i64 96
  %13 = load ptr, ptr %12, align 8
  %14 = icmp eq ptr %11, %13
  %spec.select.i = select i1 %14, ptr null, ptr %11
  %15 = getelementptr inbounds i8, ptr %9, i64 8
  %16 = icmp sgt i64 %4, 0
  br i1 %16, label %.lr.ph.i, label %_ZN6casadi17casadi_lsqr_solveIdEEiPKT_PS1_xxPKxS4_.exit

17:                                               ; preds = %.lr.ph.i
  %18 = add nuw nsw i64 %.011.i, 1
  %exitcond.not.i = icmp eq i64 %18, %4
  br i1 %exitcond.not.i, label %_ZN6casadi17casadi_lsqr_solveIdEEiPKT_PS1_xxPKxS4_.exit, label %.lr.ph.i, !llvm.loop !4

.lr.ph.i:                                         ; preds = %6, %17
  %.011.i = phi i64 [ %18, %17 ], [ 0, %6 ]
  %19 = load i64, ptr %15, align 8
  %20 = mul nsw i64 %19, %.011.i
  %21 = getelementptr inbounds double, ptr %3, i64 %20
  %22 = tail call noundef i32 @_ZN6casadi24casadi_lsqr_single_solveIdEEiPKT_PS1_xPKxS4_(ptr noundef %2, ptr noundef %21, i64 noundef %7, ptr noundef %9, ptr noundef %spec.select.i)
  %.not.i = icmp eq i32 %22, 0
  br i1 %.not.i, label %17, label %_ZN6casadi17casadi_lsqr_solveIdEEiPKT_PS1_xxPKxS4_.exit

_ZN6casadi17casadi_lsqr_solveIdEEiPKT_PS1_xxPKxS4_.exit: ; preds = %17, %.lr.ph.i, %6
  %.010.i = phi i32 [ 0, %6 ], [ 1, %.lr.ph.i ], [ 0, %17 ]
  ret i32 %.010.i
}